target datalayout = "e-m:e-p270:32:32-p271:32:32-p272:64:64-i64:64-f80:128-n8:16:32:64-S128"
target triple = "x86_64-pc-linux-gnu"

%struct.stu = type { [40 x i8], i32, i32, i8, i8, i32, i32 }

@.str = private unnamed_addr constant [3 x i8] c"%d\00", align 1
@.str.1 = private unnamed_addr constant [18 x i8] c"%s %d %d %c %c %d\00", align 1
@stu = common dso_local global [102 x %struct.stu] zeroinitializer, align 16
@.str.2 = private unnamed_addr constant [4 x i8] c"%s\0A\00", align 1
@.str.3 = private unnamed_addr constant [4 x i8] c"%d\0A\00", align 1

; Function Attrs: noinline nounwind uwtable
define dso_local void @main() #0 {
  %1 = alloca i32, align 4
  %2 = alloca i32, align 4
  %3 = alloca i32, align 4
  %4 = alloca i32, align 4
  store i32 0, i32* %1, align 4
  store i32 0, i32* %4, align 4
  %5 = call i32 (i8*, ...) @__isoc99_scanf(i8* getelementptr inbounds ([3 x i8], [3 x i8]* @.str, i64 0, i64 0), i32* %3)
  store i32 0, i32* %2, align 4
  br label %6

6:                                                ; preds = %37, %0
  %7 = load i32, i32* %2, align 4
  %8 = load i32, i32* %3, align 4
  %9 = icmp slt i32 %7, %8
  br i1 %9, label %10, label %40

10:                                               ; preds = %6
  %11 = load i32, i32* %2, align 4
  %12 = sext i32 %11 to i64
  %13 = getelementptr inbounds [102 x %struct.stu], [102 x %struct.stu]* @stu, i64 0, i64 %12
  %14 = getelementptr inbounds %struct.stu, %struct.stu* %13, i32 0, i32 0
  %15 = getelementptr inbounds [40 x i8], [40 x i8]* %14, i64 0, i64 0
  %16 = load i32, i32* %2, align 4
  %17 = sext i32 %16 to i64
  %18 = getelementptr inbounds [102 x %struct.stu], [102 x %struct.stu]* @stu, i64 0, i64 %17
  %19 = getelementptr inbounds %struct.stu, %struct.stu* %18, i32 0, i32 1
  %20 = load i32, i32* %2, align 4
  %21 = sext i32 %20 to i64
  %22 = getelementptr inbounds [102 x %struct.stu], [102 x %struct.stu]* @stu, i64 0, i64 %21
  %23 = getelementptr inbounds %struct.stu, %struct.stu* %22, i32 0, i32 2
  %24 = load i32, i32* %2, align 4
  %25 = sext i32 %24 to i64
  %26 = getelementptr inbounds [102 x %struct.stu], [102 x %struct.stu]* @stu, i64 0, i64 %25
  %27 = getelementptr inbounds %struct.stu, %struct.stu* %26, i32 0, i32 3
  %28 = load i32, i32* %2, align 4
  %29 = sext i32 %28 to i64
  %30 = getelementptr inbounds [102 x %struct.stu], [102 x %struct.stu]* @stu, i64 0, i64 %29
  %31 = getelementptr inbounds %struct.stu, %struct.stu* %30, i32 0, i32 4
  %32 = load i32, i32* %2, align 4
  %33 = sext i32 %32 to i64
  %34 = getelementptr inbounds [102 x %struct.stu], [102 x %struct.stu]* @stu, i64 0, i64 %33
  %35 = getelementptr inbounds %struct.stu, %struct.stu* %34, i32 0, i32 5
  %36 = call i32 (i8*, ...) @__isoc99_scanf(i8* getelementptr inbounds ([18 x i8], [18 x i8]* @.str.1, i64 0, i64 0), i8* %15, i32* %19, i32* %23, i8* %27, i8* %31, i32* %35)
  br label %37

37:                                               ; preds = %10
  %38 = load i32, i32* %2, align 4
  %39 = add nsw i32 %38, 1
  store i32 %39, i32* %2, align 4
  br label %6

40:                                               ; preds = %6
  store i32 0, i32* %2, align 4
  br label %41

41:                                               ; preds = %150, %40
  %42 = load i32, i32* %2, align 4
  %43 = load i32, i32* %3, align 4
  %44 = icmp slt i32 %42, %43
  br i1 %44, label %45, label %153

45:                                               ; preds = %41
  %46 = load i32, i32* %2, align 4
  %47 = sext i32 %46 to i64
  %48 = getelementptr inbounds [102 x %struct.stu], [102 x %struct.stu]* @stu, i64 0, i64 %47
  %49 = getelementptr inbounds %struct.stu, %struct.stu* %48, i32 0, i32 6
  store i32 0, i32* %49, align 4
  %50 = load i32, i32* %2, align 4
  %51 = sext i32 %50 to i64
  %52 = getelementptr inbounds [102 x %struct.stu], [102 x %struct.stu]* @stu, i64 0, i64 %51
  %53 = getelementptr inbounds %struct.stu, %struct.stu* %52, i32 0, i32 1
  %54 = load i32, i32* %53, align 4
  %55 = icmp sgt i32 %54, 80
  br i1 %55, label %56, label %70

56:                                               ; preds = %45
  %57 = load i32, i32* %2, align 4
  %58 = sext i32 %57 to i64
  %59 = getelementptr inbounds [102 x %struct.stu], [102 x %struct.stu]* @stu, i64 0, i64 %58
  %60 = getelementptr inbounds %struct.stu, %struct.stu* %59, i32 0, i32 5
  %61 = load i32, i32* %60, align 4
  %62 = icmp sgt i32 %61, 0
  br i1 %62, label %63, label %70

63:                                               ; preds = %56
  %64 = load i32, i32* %2, align 4
  %65 = sext i32 %64 to i64
  %66 = getelementptr inbounds [102 x %struct.stu], [102 x %struct.stu]* @stu, i64 0, i64 %65
  %67 = getelementptr inbounds %struct.stu, %struct.stu* %66, i32 0, i32 6
  %68 = load i32, i32* %67, align 4
  %69 = add nsw i32 %68, 8000
  store i32 %69, i32* %67, align 4
  br label %70

70:                                               ; preds = %63, %56, %45
  %71 = load i32, i32* %2, align 4
  %72 = sext i32 %71 to i64
  %73 = getelementptr inbounds [102 x %struct.stu], [102 x %struct.stu]* @stu, i64 0, i64 %72
  %74 = getelementptr inbounds %struct.stu, %struct.stu* %73, i32 0, i32 1
  %75 = load i32, i32* %74, align 4
  %76 = icmp sgt i32 %75, 85
  br i1 %76, label %77, label %91

77:                                               ; preds = %70
  %78 = load i32, i32* %2, align 4
  %79 = sext i32 %78 to i64
  %80 = getelementptr inbounds [102 x %struct.stu], [102 x %struct.stu]* @stu, i64 0, i64 %79
  %81 = getelementptr inbounds %struct.stu, %struct.stu* %80, i32 0, i32 2
  %82 = load i32, i32* %81, align 4
  %83 = icmp sgt i32 %82, 80
  br i1 %83, label %84, label %91

84:                                               ; preds = %77
  %85 = load i32, i32* %2, align 4
  %86 = sext i32 %85 to i64
  %87 = getelementptr inbounds [102 x %struct.stu], [102 x %struct.stu]* @stu, i64 0, i64 %86
  %88 = getelementptr inbounds %struct.stu, %struct.stu* %87, i32 0, i32 6
  %89 = load i32, i32* %88, align 4
  %90 = add nsw i32 %89, 4000
  store i32 %90, i32* %88, align 4
  br label %91

91:                                               ; preds = %84, %77, %70
  %92 = load i32, i32* %2, align 4
  %93 = sext i32 %92 to i64
  %94 = getelementptr inbounds [102 x %struct.stu], [102 x %struct.stu]* @stu, i64 0, i64 %93
  %95 = getelementptr inbounds %struct.stu, %struct.stu* %94, i32 0, i32 1
  %96 = load i32, i32* %95, align 4
  %97 = icmp sgt i32 %96, 90
  br i1 %97, label %98, label %105

98:                                               ; preds = %91
  %99 = load i32, i32* %2, align 4
  %100 = sext i32 %99 to i64
  %101 = getelementptr inbounds [102 x %struct.stu], [102 x %struct.stu]* @stu, i64 0, i64 %100
  %102 = getelementptr inbounds %struct.stu, %struct.stu* %101, i32 0, i32 6
  %103 = load i32, i32* %102, align 4
  %104 = add nsw i32 %103, 2000
  store i32 %104, i32* %102, align 4
  br label %105

105:                                              ; preds = %98, %91
  %106 = load i32, i32* %2, align 4
  %107 = sext i32 %106 to i64
  %108 = getelementptr inbounds [102 x %struct.stu], [102 x %struct.stu]* @stu, i64 0, i64 %107
  %109 = getelementptr inbounds %struct.stu, %struct.stu* %108, i32 0, i32 1
  %110 = load i32, i32* %109, align 4
  %111 = icmp sgt i32 %110, 85
  br i1 %111, label %112, label %127

112:                                              ; preds = %105
  %113 = load i32, i32* %2, align 4
  %114 = sext i32 %113 to i64
  %115 = getelementptr inbounds [102 x %struct.stu], [102 x %struct.stu]* @stu, i64 0, i64 %114
  %116 = getelementptr inbounds %struct.stu, %struct.stu* %115, i32 0, i32 4
  %117 = load i8, i8* %116, align 1
  %118 = sext i8 %117 to i32
  %119 = icmp eq i32 %118, 89
  br i1 %119, label %120, label %127

120:                                              ; preds = %112
  %121 = load i32, i32* %2, align 4
  %122 = sext i32 %121 to i64
  %123 = getelementptr inbounds [102 x %struct.stu], [102 x %struct.stu]* @stu, i64 0, i64 %122
  %124 = getelementptr inbounds %struct.stu, %struct.stu* %123, i32 0, i32 6
  %125 = load i32, i32* %124, align 4
  %126 = add nsw i32 %125, 1000
  store i32 %126, i32* %124, align 4
  br label %127

127:                                              ; preds = %120, %112, %105
  %128 = load i32, i32* %2, align 4
  %129 = sext i32 %128 to i64
  %130 = getelementptr inbounds [102 x %struct.stu], [102 x %struct.stu]* @stu, i64 0, i64 %129
  %131 = getelementptr inbounds %struct.stu, %struct.stu* %130, i32 0, i32 2
  %132 = load i32, i32* %131, align 4
  %133 = icmp sgt i32 %132, 80
  br i1 %133, label %134, label %149

134:                                              ; preds = %127
  %135 = load i32, i32* %2, align 4
  %136 = sext i32 %135 to i64
  %137 = getelementptr inbounds [102 x %struct.stu], [102 x %struct.stu]* @stu, i64 0, i64 %136
  %138 = getelementptr inbounds %struct.stu, %struct.stu* %137, i32 0, i32 3
  %139 = load i8, i8* %138, align 4
  %140 = sext i8 %139 to i32
  %141 = icmp eq i32 %140, 89
  br i1 %141, label %142, label %149

142:                                              ; preds = %134
  %143 = load i32, i32* %2, align 4
  %144 = sext i32 %143 to i64
  %145 = getelementptr inbounds [102 x %struct.stu], [102 x %struct.stu]* @stu, i64 0, i64 %144
  %146 = getelementptr inbounds %struct.stu, %struct.stu* %145, i32 0, i32 6
  %147 = load i32, i32* %146, align 4
  %148 = add nsw i32 %147, 850
  store i32 %148, i32* %146, align 4
  br label %149

149:                                              ; preds = %142, %134, %127
  br label %150

150:                                              ; preds = %149
  %151 = load i32, i32* %2, align 4
  %152 = add nsw i32 %151, 1
  store i32 %152, i32* %2, align 4
  br label %41

153:                                              ; preds = %41
  store i32 0, i32* %2, align 4
  br label %154

154:                                              ; preds = %166, %153
  %155 = load i32, i32* %2, align 4
  %156 = load i32, i32* %3, align 4
  %157 = icmp slt i32 %155, %156
  br i1 %157, label %158, label %169

158:                                              ; preds = %154
  %159 = load i32, i32* %2, align 4
  %160 = sext i32 %159 to i64
  %161 = getelementptr inbounds [102 x %struct.stu], [102 x %struct.stu]* @stu, i64 0, i64 %160
  %162 = getelementptr inbounds %struct.stu, %struct.stu* %161, i32 0, i32 6
  %163 = load i32, i32* %162, align 4
  %164 = load i32, i32* %1, align 4
  %165 = add nsw i32 %164, %163
  store i32 %165, i32* %1, align 4
  br label %166

166:                                              ; preds = %158
  %167 = load i32, i32* %2, align 4
  %168 = add nsw i32 %167, 1
  store i32 %168, i32* %2, align 4
  br label %154

169:                                              ; preds = %154
  store i32 1, i32* %2, align 4
  br label %170

170:                                              ; preds = %196, %169
  %171 = load i32, i32* %2, align 4
  %172 = load i32, i32* %3, align 4
  %173 = icmp slt i32 %171, %172
  br i1 %173, label %174, label %199

174:                                              ; preds = %170
  %175 = load i32, i32* %2, align 4
  %176 = sext i32 %175 to i64
  %177 = getelementptr inbounds [102 x %struct.stu], [102 x %struct.stu]* @stu, i64 0, i64 %176
  %178 = getelementptr inbounds %struct.stu, %struct.stu* %177, i32 0, i32 6
  %179 = load i32, i32* %178, align 4
  %180 = load i32, i32* %4, align 4
  %181 = sext i32 %180 to i64
  %182 = getelementptr inbounds [102 x %struct.stu], [102 x %struct.stu]* @stu, i64 0, i64 %181
  %183 = getelementptr inbounds %struct.stu, %struct.stu* %182, i32 0, i32 6
  %184 = load i32, i32* %183, align 4
  %185 = icmp sgt i32 %179, %184
  br i1 %185, label %186, label %195

186:                                              ; preds = %174
  %187 = load i32, i32* %4, align 4
  %188 = sext i32 %187 to i64
  %189 = getelementptr inbounds [102 x %struct.stu], [102 x %struct.stu]* @stu, i64 0, i64 %188
  %190 = load i32, i32* %2, align 4
  %191 = sext i32 %190 to i64
  %192 = getelementptr inbounds [102 x %struct.stu], [102 x %struct.stu]* @stu, i64 0, i64 %191
  %193 = bitcast %struct.stu* %189 to i8*
  %194 = bitcast %struct.stu* %192 to i8*
  call void @llvm.memcpy.p0i8.p0i8.i64(i8* align 4 %193, i8* align 4 %194, i64 60, i1 false)
  br label %195

195:                                              ; preds = %186, %174
  br label %196

196:                                              ; preds = %195
  %197 = load i32, i32* %2, align 4
  %198 = add nsw i32 %197, 1
  store i32 %198, i32* %2, align 4
  br label %170

199:                                              ; preds = %170
  %200 = load i32, i32* %4, align 4
  %201 = sext i32 %200 to i64
  %202 = getelementptr inbounds [102 x %struct.stu], [102 x %struct.stu]* @stu, i64 0, i64 %201
  %203 = getelementptr inbounds %struct.stu, %struct.stu* %202, i32 0, i32 0
  %204 = getelementptr inbounds [40 x i8], [40 x i8]* %203, i64 0, i64 0
  %205 = call i32 (i8*, ...) @printf(i8* getelementptr inbounds ([4 x i8], [4 x i8]* @.str.2, i64 0, i64 0), i8* %204)
  %206 = load i32, i32* %4, align 4
  %207 = sext i32 %206 to i64
  %208 = getelementptr inbounds [102 x %struct.stu], [102 x %struct.stu]* @stu, i64 0, i64 %207
  %209 = getelementptr inbounds %struct.stu, %struct.stu* %208, i32 0, i32 6
  %210 = load i32, i32* %209, align 4
  %211 = call i32 (i8*, ...) @printf(i8* getelementptr inbounds ([4 x i8], [4 x i8]* @.str.3, i64 0, i64 0), i32 %210)
  %212 = load i32, i32* %1, align 4
  %213 = call i32 (i8*, ...) @printf(i8* getelementptr inbounds ([4 x i8], [4 x i8]* @.str.3, i64 0, i64 0), i32 %212)
  ret void
}